; Function Attrs: cold nounwind optsize uwtable
define internal noundef i32 @config_input(ptr noundef readonly captures(none) %0) #1 {
  %2 = getelementptr inbounds nuw i8, ptr %0, i64 16
  %3 = load ptr, ptr %2, align 8, !tbaa !22
  %4 = getelementptr inbounds nuw i8, ptr %3, i64 72
  %5 = load ptr, ptr %4, align 8, !tbaa !31
  %6 = getelementptr inbounds nuw i8, ptr %0, i64 36
  %7 = load i32, ptr %6, align 4, !tbaa !41
  %8 = tail call ptr @av_pix_fmt_desc_get(i32 noundef %7) #10
  %9 = getelementptr inbounds nuw i8, ptr %8, i64 9
  %10 = load i8, ptr %9, align 1, !tbaa !42
  %11 = zext i8 %10 to i32
  %12 = getelementptr inbounds nuw i8, ptr %5, i64 40
  store i32 %11, ptr %12, align 8, !tbaa !44
  %13 = getelementptr inbounds nuw i8, ptr %8, i64 10
  %14 = load i8, ptr %13, align 2, !tbaa !45
  %15 = zext i8 %14 to i32
  %16 = getelementptr inbounds nuw i8, ptr %5, i64 44
  store i32 %15, ptr %16, align 4, !tbaa !46
  ret i32 0
}